target datalayout = "e-m:e-p270:32:32-p271:32:32-p272:64:64-i64:64-i128:128-f80:128-n8:16:32:64-S128"
target triple = "x86_64-pc-linux-gnu"

%class.debug_module_t = type <{ %class.abstract_device_t, %struct.debug_module_config_t, i32, i32, i32, i32, ptr, [4 x i8], [48 x i8], [4 x i8], ptr, [8 x i8], %"class.std::vector", [1024 x i8], %struct.dmcontrol_t, %struct.dmstatus_t, %struct.abstractcs_t, %struct.abstractauto_t, i32, i16, [2 x i8], %"class.std::vector.0", %struct.sbcs_t, [4 x i32], [4 x i32], i32, i32, i8, [3 x i8], i32, [2 x i8], [2 x i8], i32, i32, [4 x i8] }>
%class.abstract_device_t = type { ptr }
%struct.debug_module_config_t = type <{ i32, i32, i8, [3 x i8], i32, i8, i8, i8, i8, i8, [3 x i8] }>
%"class.std::vector" = type { %"struct.std::_Vector_base" }
%"struct.std::_Vector_base" = type { %"struct.std::_Vector_base<hart_debug_state_t, std::allocator<hart_debug_state_t>>::_Vector_impl" }
%"struct.std::_Vector_base<hart_debug_state_t, std::allocator<hart_debug_state_t>>::_Vector_impl" = type { %"struct.std::_Vector_base<hart_debug_state_t, std::allocator<hart_debug_state_t>>::_Vector_impl_data" }
%"struct.std::_Vector_base<hart_debug_state_t, std::allocator<hart_debug_state_t>>::_Vector_impl_data" = type { ptr, ptr, ptr }
%struct.dmcontrol_t = type { i8, i8, i8, i32, i8, i8, i8 }
%struct.dmstatus_t = type { i8, i8, i8, i8, i8, i8, i8, i8, i8, i8, i8, i8, i8, i8, i8, i8, i32 }
%struct.abstractcs_t = type { i8, i32, i32, i32 }
%struct.abstractauto_t = type { i32, i32 }
%"class.std::vector.0" = type { %"struct.std::_Bvector_base" }
%"struct.std::_Bvector_base" = type { %"struct.std::_Bvector_base<std::allocator<bool>>::_Bvector_impl" }
%"struct.std::_Bvector_base<std::allocator<bool>>::_Bvector_impl" = type { %"struct.std::_Bvector_base<std::allocator<bool>>::_Bvector_impl_data" }
%"struct.std::_Bvector_base<std::allocator<bool>>::_Bvector_impl_data" = type { %"struct.std::_Bit_iterator", %"struct.std::_Bit_iterator", ptr }
%"struct.std::_Bit_iterator" = type { %"struct.std::_Bit_iterator_base.base", [4 x i8] }
%"struct.std::_Bit_iterator_base.base" = type <{ ptr, i32 }>
%struct.sbcs_t = type { i32, i8, i32, i8, i8, i32, i32, i8, i8, i8, i8, i8, i8 }
%"struct.std::_Bit_iterator_base" = type <{ ptr, i32, [4 x i8] }>

@_ZTV14debug_module_t = unnamed_addr constant { [7 x ptr] } { [7 x ptr] [ptr null, ptr @_ZTI14debug_module_t, ptr @_ZN14debug_module_t4loadEmmPh, ptr @_ZN14debug_module_t5storeEmmPKh, ptr @_ZN14debug_module_tD1Ev, ptr @_ZN14debug_module_tD0Ev, ptr @_ZN17abstract_device_t4tickEm] }, align 8

; Function Attrs: mustprogress nounwind uwtable
define linkonce_odr void @_ZNSt15__new_allocatorI18hart_debug_state_tE10deallocateEPS0_m(ptr noundef nonnull align 1 dereferenceable(1) %0, ptr noundef %1, i64 noundef %2) #7 comdat align 2 {
  %4 = alloca ptr, align 8
  %5 = alloca ptr, align 8
  %6 = alloca i64, align 8
  store ptr %0, ptr %4, align 8, !tbaa !307
  store ptr %1, ptr %5, align 8, !tbaa !317
  store i64 %2, ptr %6, align 8, !tbaa !66
  %7 = load ptr, ptr %5, align 8, !tbaa !317
  %8 = load i64, ptr %6, align 8, !tbaa !66
  %9 = mul i64 %8, 4
  call void @_ZdlPvm(ptr noundef %7, i64 noundef %9) #23
  ret void
}

; Function Attrs: mustprogress nounwind uwtable
define linkonce_odr void @_ZNSt18_Bit_iterator_baseC2EPmj(ptr noundef nonnull align 8 dereferenceable(12) %0, ptr noundef %1, i32 noundef %2) unnamed_addr #7 comdat align 2 {
  %4 = alloca ptr, align 8
  %5 = alloca ptr, align 8
  %6 = alloca i32, align 4
  store ptr %0, ptr %4, align 8, !tbaa !336
  store ptr %1, ptr %5, align 8, !tbaa !81
  store i32 %2, ptr %6, align 4, !tbaa !15
  %7 = load ptr, ptr %4, align 8
  %8 = getelementptr inbounds nuw %"struct.std::_Bit_iterator_base", ptr %7, i32 0, i32 0
  %9 = load ptr, ptr %5, align 8, !tbaa !81
  store ptr %9, ptr %8, align 8, !tbaa !327
  %10 = getelementptr inbounds nuw %"struct.std::_Bit_iterator_base", ptr %7, i32 0, i32 1
  %11 = load i32, ptr %6, align 4, !tbaa !15
  store i32 %11, ptr %10, align 8, !tbaa !338
  ret void
}

; Function Attrs: alwaysinline mustprogress uwtable
define linkonce_odr void @_ZNSaI18hart_debug_state_tE10deallocateEPS_m(ptr noundef nonnull align 1 dereferenceable(1) %0, ptr noundef %1, i64 noundef %2) #13 comdat align 2 {
  %4 = alloca ptr, align 8
  %5 = alloca ptr, align 8
  %6 = alloca i64, align 8
  store ptr %0, ptr %4, align 8, !tbaa !68
  store ptr %1, ptr %5, align 8, !tbaa !317
  store i64 %2, ptr %6, align 8, !tbaa !66
  %7 = load ptr, ptr %4, align 8
  %8 = load ptr, ptr %5, align 8, !tbaa !317
  %9 = load i64, ptr %6, align 8, !tbaa !66
  call void @_ZNSt15__new_allocatorI18hart_debug_state_tE10deallocateEPS0_m(ptr noundef nonnull align 1 dereferenceable(1) %7, ptr noundef %8, i64 noundef %9)
  ret void
}

; Function Attrs: mustprogress uwtable
define linkonce_odr void @_ZNSt13_Bit_iteratorC2Ev(ptr noundef nonnull align 8 dereferenceable(12) %0) unnamed_addr #4 comdat align 2 {
  %2 = alloca ptr, align 8
  store ptr %0, ptr %2, align 8, !tbaa !334
  %3 = load ptr, ptr %2, align 8
  call void @_ZNSt18_Bit_iterator_baseC2EPmj(ptr noundef nonnull align 8 dereferenceable(12) %3, ptr noundef null, i32 noundef 0)
  ret void
}

; Function Attrs: mustprogress nounwind uwtable
define linkonce_odr void @_ZNSt15__new_allocatorImE10deallocateEPmm(ptr noundef nonnull align 1 dereferenceable(1) %0, ptr noundef %1, i64 noundef %2) #7 comdat align 2 {
  %4 = alloca ptr, align 8
  %5 = alloca ptr, align 8
  %6 = alloca i64, align 8
  store ptr %0, ptr %4, align 8, !tbaa !332
  store ptr %1, ptr %5, align 8, !tbaa !81
  store i64 %2, ptr %6, align 8, !tbaa !66
  %7 = load ptr, ptr %5, align 8, !tbaa !81
  %8 = load i64, ptr %6, align 8, !tbaa !66
  %9 = mul i64 %8, 8
  call void @_ZdlPvm(ptr noundef %7, i64 noundef %9) #23
  ret void
}

; Function Attrs: mustprogress uwtable
define linkonce_odr void @_ZNSt16allocator_traitsISaI18hart_debug_state_tEE10deallocateERS1_PS0_m(ptr noundef nonnull align 1 dereferenceable(1) %0, ptr noundef %1, i64 noundef %2) #4 comdat align 2 {
  %4 = alloca ptr, align 8
  %5 = alloca ptr, align 8
  %6 = alloca i64, align 8
  store ptr %0, ptr %4, align 8, !tbaa !68
  store ptr %1, ptr %5, align 8, !tbaa !317
  store i64 %2, ptr %6, align 8, !tbaa !66
  %7 = load ptr, ptr %4, align 8, !tbaa !68
  %8 = load ptr, ptr %5, align 8, !tbaa !317
  %9 = load i64, ptr %6, align 8, !tbaa !66
  call void @_ZNSaI18hart_debug_state_tE10deallocateEPS_m(ptr noundef nonnull align 1 dereferenceable(1) %7, ptr noundef %8, i64 noundef %9)
  ret void
}

; Function Attrs: mustprogress nounwind uwtable
define linkonce_odr void @_ZNSt12_Destroy_auxILb1EE9__destroyIP18hart_debug_state_tEEvT_S4_(ptr noundef %0, ptr noundef %1) #7 comdat align 2 {
  %3 = alloca ptr, align 8
  %4 = alloca ptr, align 8
  store ptr %0, ptr %3, align 8, !tbaa !317
  store ptr %1, ptr %4, align 8, !tbaa !317
  ret void
}

; Function Attrs: mustprogress nounwind uwtable
define linkonce_odr void @_ZNSt13_Bvector_baseISaIbEE18_Bvector_impl_dataC2Ev(ptr noundef nonnull align 8 dereferenceable(40) %0) unnamed_addr #7 comdat align 2 personality ptr @__gxx_personality_v0 {
  %2 = alloca ptr, align 8
  store ptr %0, ptr %2, align 8, !tbaa !339
  %3 = load ptr, ptr %2, align 8
  %4 = getelementptr inbounds nuw %"struct.std::_Bvector_base<std::allocator<bool>>::_Bvector_impl_data", ptr %3, i32 0, i32 0
  invoke void @_ZNSt13_Bit_iteratorC2Ev(ptr noundef nonnull align 8 dereferenceable(12) %4)
          to label %5 unwind label %9

5:                                                ; preds = %1
  %6 = getelementptr inbounds nuw %"struct.std::_Bvector_base<std::allocator<bool>>::_Bvector_impl_data", ptr %3, i32 0, i32 1
  invoke void @_ZNSt13_Bit_iteratorC2Ev(ptr noundef nonnull align 8 dereferenceable(12) %6)
          to label %7 unwind label %9

7:                                                ; preds = %5
  %8 = getelementptr inbounds nuw %"struct.std::_Bvector_base<std::allocator<bool>>::_Bvector_impl_data", ptr %3, i32 0, i32 2
  store ptr null, ptr %8, align 8, !tbaa !326
  ret void

9:                                                ; preds = %5, %1
  %10 = landingpad { ptr, i32 }
          catch ptr null
  %11 = extractvalue { ptr, i32 } %10, 0
  call void @__clang_call_terminate(ptr %11) #21
  unreachable
}

; Function Attrs: alwaysinline mustprogress uwtable
define linkonce_odr void @_ZNSaImE10deallocateEPmm(ptr noundef nonnull align 1 dereferenceable(1) %0, ptr noundef %1, i64 noundef %2) #13 comdat align 2 {
  %4 = alloca ptr, align 8
  %5 = alloca ptr, align 8
  %6 = alloca i64, align 8
  store ptr %0, ptr %4, align 8, !tbaa !328
  store ptr %1, ptr %5, align 8, !tbaa !81
  store i64 %2, ptr %6, align 8, !tbaa !66
  %7 = load ptr, ptr %4, align 8
  %8 = load ptr, ptr %5, align 8, !tbaa !81
  %9 = load i64, ptr %6, align 8, !tbaa !66
  call void @_ZNSt15__new_allocatorImE10deallocateEPmm(ptr noundef nonnull align 1 dereferenceable(1) %7, ptr noundef %8, i64 noundef %9)
  ret void
}

; Function Attrs: mustprogress nounwind uwtable
define linkonce_odr void @_ZNSaI18hart_debug_state_tED2Ev(ptr noundef nonnull align 1 dereferenceable(1) %0) unnamed_addr #7 comdat align 2 {
  %2 = alloca ptr, align 8
  store ptr %0, ptr %2, align 8, !tbaa !68
  ret void
}

; Function Attrs: mustprogress uwtable
define linkonce_odr void @_ZNSt12_Vector_baseI18hart_debug_state_tSaIS0_EE13_M_deallocateEPS0_m(ptr noundef nonnull align 8 dereferenceable(24) %0, ptr noundef %1, i64 noundef %2) #4 comdat align 2 {
  %4 = alloca ptr, align 8
  %5 = alloca ptr, align 8
  %6 = alloca i64, align 8
  store ptr %0, ptr %4, align 8, !tbaa !309
  store ptr %1, ptr %5, align 8, !tbaa !317
  store i64 %2, ptr %6, align 8, !tbaa !66
  %7 = load ptr, ptr %4, align 8
  %8 = load ptr, ptr %5, align 8, !tbaa !317
  %9 = icmp ne ptr %8, null
  br i1 %9, label %10, label %14

10:                                               ; preds = %3
  %11 = getelementptr inbounds nuw %"struct.std::_Vector_base", ptr %7, i32 0, i32 0
  %12 = load ptr, ptr %5, align 8, !tbaa !317
  %13 = load i64, ptr %6, align 8, !tbaa !66
  call void @_ZNSt16allocator_traitsISaI18hart_debug_state_tEE10deallocateERS1_PS0_m(ptr noundef nonnull align 1 dereferenceable(1) %11, ptr noundef %12, i64 noundef %13)
  br label %14

14:                                               ; preds = %10, %3
  ret void
}

; Function Attrs: inlinehint mustprogress uwtable
define linkonce_odr void @_ZSt8_DestroyIP18hart_debug_state_tEvT_S2_(ptr noundef %0, ptr noundef %1) #19 comdat {
  %3 = alloca ptr, align 8
  %4 = alloca ptr, align 8
  store ptr %0, ptr %3, align 8, !tbaa !317
  store ptr %1, ptr %4, align 8, !tbaa !317
  %5 = load ptr, ptr %3, align 8, !tbaa !317
  %6 = load ptr, ptr %4, align 8, !tbaa !317
  call void @_ZNSt12_Destroy_auxILb1EE9__destroyIP18hart_debug_state_tEEvT_S4_(ptr noundef %5, ptr noundef %6)
  ret void
}

; Function Attrs: mustprogress nounwind uwtable
define linkonce_odr void @_ZNSt13_Bvector_baseISaIbEE18_Bvector_impl_data8_M_resetEv(ptr noundef nonnull align 8 dereferenceable(40) %0) #7 comdat align 2 {
  %2 = alloca ptr, align 8
  %3 = alloca %"struct.std::_Bvector_base<std::allocator<bool>>::_Bvector_impl_data", align 8
  store ptr %0, ptr %2, align 8, !tbaa !339
  %4 = load ptr, ptr %2, align 8
  call void @llvm.lifetime.start.p0(i64 40, ptr %3) #3
  call void @_ZNSt13_Bvector_baseISaIbEE18_Bvector_impl_dataC2Ev(ptr noundef nonnull align 8 dereferenceable(40) %3) #3
  call void @llvm.memcpy.p0.p0.i64(ptr align 8 %4, ptr align 8 %3, i64 40, i1 false)
  call void @llvm.lifetime.end.p0(i64 40, ptr %3) #3
  ret void
}

; Function Attrs: mustprogress uwtable
define linkonce_odr void @_ZNSt16allocator_traitsISaImEE10deallocateERS0_Pmm(ptr noundef nonnull align 1 dereferenceable(1) %0, ptr noundef %1, i64 noundef %2) #4 comdat align 2 {
  %4 = alloca ptr, align 8
  %5 = alloca ptr, align 8
  %6 = alloca i64, align 8
  store ptr %0, ptr %4, align 8, !tbaa !328
  store ptr %1, ptr %5, align 8, !tbaa !81
  store i64 %2, ptr %6, align 8, !tbaa !66
  %7 = load ptr, ptr %4, align 8, !tbaa !328
  %8 = load ptr, ptr %5, align 8, !tbaa !81
  %9 = load i64, ptr %6, align 8, !tbaa !66
  call void @_ZNSaImE10deallocateEPmm(ptr noundef nonnull align 1 dereferenceable(1) %7, ptr noundef %8, i64 noundef %9)
  ret void
}

; Function Attrs: mustprogress nounwind uwtable
define linkonce_odr noundef ptr @_ZNKSt13_Bvector_baseISaIbEE13_Bvector_impl11_M_end_addrEv(ptr noundef nonnull align 8 dereferenceable(40) %0) #7 comdat align 2 {
  %2 = alloca ptr, align 8
  %3 = alloca ptr, align 8
  store ptr %0, ptr %3, align 8, !tbaa !330
  %4 = load ptr, ptr %3, align 8
  %5 = getelementptr inbounds nuw %"struct.std::_Bvector_base<std::allocator<bool>>::_Bvector_impl_data", ptr %4, i32 0, i32 2
  %6 = load ptr, ptr %5, align 8, !tbaa !326
  %7 = icmp ne ptr %6, null
  br i1 %7, label %8, label %13

8:                                                ; preds = %1
  %9 = getelementptr inbounds nuw %"struct.std::_Bvector_base<std::allocator<bool>>::_Bvector_impl_data", ptr %4, i32 0, i32 2
  %10 = load ptr, ptr %9, align 8, !tbaa !326
  %11 = getelementptr inbounds i64, ptr %10, i64 -1
  %12 = getelementptr inbounds i64, ptr %11, i64 1
  store ptr %12, ptr %2, align 8
  br label %14

13:                                               ; preds = %1
  store ptr null, ptr %2, align 8
  br label %14

14:                                               ; preds = %13, %8
  %15 = load ptr, ptr %2, align 8
  ret ptr %15
}

; Function Attrs: mustprogress nounwind uwtable
define linkonce_odr void @_ZNSt12_Vector_baseI18hart_debug_state_tSaIS0_EED2Ev(ptr noundef nonnull align 8 dereferenceable(24) %0) unnamed_addr #7 comdat align 2 personality ptr @__gxx_personality_v0 {
  %2 = alloca ptr, align 8
  store ptr %0, ptr %2, align 8, !tbaa !309
  %3 = load ptr, ptr %2, align 8
  %4 = getelementptr inbounds nuw %"struct.std::_Vector_base", ptr %3, i32 0, i32 0
  %5 = getelementptr inbounds nuw %"struct.std::_Vector_base<hart_debug_state_t, std::allocator<hart_debug_state_t>>::_Vector_impl_data", ptr %4, i32 0, i32 0
  %6 = load ptr, ptr %5, align 8, !tbaa !213
  %7 = getelementptr inbounds nuw %"struct.std::_Vector_base", ptr %3, i32 0, i32 0
  %8 = getelementptr inbounds nuw %"struct.std::_Vector_base<hart_debug_state_t, std::allocator<hart_debug_state_t>>::_Vector_impl_data", ptr %7, i32 0, i32 2
  %9 = load ptr, ptr %8, align 8, !tbaa !311
  %10 = getelementptr inbounds nuw %"struct.std::_Vector_base", ptr %3, i32 0, i32 0
  %11 = getelementptr inbounds nuw %"struct.std::_Vector_base<hart_debug_state_t, std::allocator<hart_debug_state_t>>::_Vector_impl_data", ptr %10, i32 0, i32 0
  %12 = load ptr, ptr %11, align 8, !tbaa !213
  %13 = ptrtoint ptr %9 to i64
  %14 = ptrtoint ptr %12 to i64
  %15 = sub i64 %13, %14
  %16 = sdiv exact i64 %15, 4
  invoke void @_ZNSt12_Vector_baseI18hart_debug_state_tSaIS0_EE13_M_deallocateEPS0_m(ptr noundef nonnull align 8 dereferenceable(24) %3, ptr noundef %6, i64 noundef %16)
          to label %17 unwind label %19

17:                                               ; preds = %1
  %18 = getelementptr inbounds nuw %"struct.std::_Vector_base", ptr %3, i32 0, i32 0
  call void @_ZNSaI18hart_debug_state_tED2Ev(ptr noundef nonnull align 8 dereferenceable(24) %18) #3
  ret void

19:                                               ; preds = %1
  %20 = landingpad { ptr, i32 }
          catch ptr null
  %21 = extractvalue { ptr, i32 } %20, 0
  call void @__clang_call_terminate(ptr %21) #21
  unreachable
}

; Function Attrs: inlinehint mustprogress uwtable
define linkonce_odr void @_ZSt8_DestroyIP18hart_debug_state_tS0_EvT_S2_RSaIT0_E(ptr noundef %0, ptr noundef %1, ptr noundef nonnull align 1 dereferenceable(1) %2) #19 comdat {
  %4 = alloca ptr, align 8
  %5 = alloca ptr, align 8
  %6 = alloca ptr, align 8
  store ptr %0, ptr %4, align 8, !tbaa !317
  store ptr %1, ptr %5, align 8, !tbaa !317
  store ptr %2, ptr %6, align 8, !tbaa !68
  %7 = load ptr, ptr %4, align 8, !tbaa !317
  %8 = load ptr, ptr %5, align 8, !tbaa !317
  call void @_ZSt8_DestroyIP18hart_debug_state_tEvT_S2_(ptr noundef %7, ptr noundef %8)
  ret void
}

; Function Attrs: mustprogress nounwind uwtable
define linkonce_odr noundef nonnull align 1 dereferenceable(1) ptr @_ZNSt12_Vector_baseI18hart_debug_state_tSaIS0_EE19_M_get_Tp_allocatorEv(ptr noundef nonnull align 8 dereferenceable(24) %0) #7 comdat align 2 {
  %2 = alloca ptr, align 8
  store ptr %0, ptr %2, align 8, !tbaa !309
  %3 = load ptr, ptr %2, align 8
  %4 = getelementptr inbounds nuw %"struct.std::_Vector_base", ptr %3, i32 0, i32 0
  ret ptr %4
}

; Function Attrs: noinline noreturn nounwind uwtable
define linkonce_odr hidden void @__clang_call_terminate(ptr noundef %0) #17 comdat {
  %2 = call ptr @__cxa_begin_catch(ptr %0) #3
  call void @_ZSt9terminatev() #21
  unreachable
}

; Function Attrs: mustprogress nounwind uwtable
define linkonce_odr void @_ZNSaImED2Ev(ptr noundef nonnull align 1 dereferenceable(1) %0) unnamed_addr #7 comdat align 2 {
  %2 = alloca ptr, align 8
  store ptr %0, ptr %2, align 8, !tbaa !328
  ret void
}

; Function Attrs: mustprogress uwtable
define linkonce_odr void @_ZNSt13_Bvector_baseISaIbEE13_M_deallocateEv(ptr noundef nonnull align 8 dereferenceable(40) %0) #4 comdat align 2 {
  %2 = alloca ptr, align 8
  %3 = alloca i64, align 8
  store ptr %0, ptr %2, align 8, !tbaa !211
  %4 = load ptr, ptr %2, align 8
  %5 = getelementptr inbounds nuw %"struct.std::_Bvector_base", ptr %4, i32 0, i32 0
  %6 = getelementptr inbounds nuw %"struct.std::_Bvector_base<std::allocator<bool>>::_Bvector_impl_data", ptr %5, i32 0, i32 0
  %7 = getelementptr inbounds nuw %"struct.std::_Bit_iterator_base", ptr %6, i32 0, i32 0
  %8 = load ptr, ptr %7, align 8, !tbaa !327
  %9 = icmp ne ptr %8, null
  br i1 %9, label %10, label %30

10:                                               ; preds = %1
  call void @llvm.lifetime.start.p0(i64 8, ptr %3) #3
  %11 = getelementptr inbounds nuw %"struct.std::_Bvector_base", ptr %4, i32 0, i32 0
  %12 = call noundef ptr @_ZNKSt13_Bvector_baseISaIbEE13_Bvector_impl11_M_end_addrEv(ptr noundef nonnull align 8 dereferenceable(40) %11) #3
  %13 = getelementptr inbounds nuw %"struct.std::_Bvector_base", ptr %4, i32 0, i32 0
  %14 = getelementptr inbounds nuw %"struct.std::_Bvector_base<std::allocator<bool>>::_Bvector_impl_data", ptr %13, i32 0, i32 0
  %15 = getelementptr inbounds nuw %"struct.std::_Bit_iterator_base", ptr %14, i32 0, i32 0
  %16 = load ptr, ptr %15, align 8, !tbaa !327
  %17 = ptrtoint ptr %12 to i64
  %18 = ptrtoint ptr %16 to i64
  %19 = sub i64 %17, %18
  %20 = sdiv exact i64 %19, 8
  store i64 %20, ptr %3, align 8, !tbaa !66
  %21 = getelementptr inbounds nuw %"struct.std::_Bvector_base", ptr %4, i32 0, i32 0
  %22 = getelementptr inbounds nuw %"struct.std::_Bvector_base", ptr %4, i32 0, i32 0
  %23 = getelementptr inbounds nuw %"struct.std::_Bvector_base<std::allocator<bool>>::_Bvector_impl_data", ptr %22, i32 0, i32 2
  %24 = load ptr, ptr %23, align 8, !tbaa !326
  %25 = load i64, ptr %3, align 8, !tbaa !66
  %26 = sub i64 0, %25
  %27 = getelementptr inbounds i64, ptr %24, i64 %26
  %28 = load i64, ptr %3, align 8, !tbaa !66
  call void @_ZNSt16allocator_traitsISaImEE10deallocateERS0_Pmm(ptr noundef nonnull align 1 dereferenceable(1) %21, ptr noundef %27, i64 noundef %28)
  %29 = getelementptr inbounds nuw %"struct.std::_Bvector_base", ptr %4, i32 0, i32 0
  call void @_ZNSt13_Bvector_baseISaIbEE18_Bvector_impl_data8_M_resetEv(ptr noundef nonnull align 8 dereferenceable(40) %29) #3
  call void @llvm.lifetime.end.p0(i64 8, ptr %3) #3
  br label %30

30:                                               ; preds = %10, %1
  ret void
}

; Function Attrs: mustprogress nounwind uwtable
define linkonce_odr void @_ZN17abstract_device_tD2Ev(ptr noundef nonnull align 8 dereferenceable(8) %0) unnamed_addr #7 comdat align 2 {
  %2 = alloca ptr, align 8
  store ptr %0, ptr %2, align 8, !tbaa !61
  ret void
}

; Function Attrs: mustprogress nounwind uwtable
define linkonce_odr void @_ZNSt6vectorI18hart_debug_state_tSaIS0_EED2Ev(ptr noundef nonnull align 8 dereferenceable(24) %0) unnamed_addr #7 comdat align 2 personality ptr @__gxx_personality_v0 {
  %2 = alloca ptr, align 8
  store ptr %0, ptr %2, align 8, !tbaa !70
  %3 = load ptr, ptr %2, align 8
  %4 = getelementptr inbounds nuw %"struct.std::_Vector_base", ptr %3, i32 0, i32 0
  %5 = getelementptr inbounds nuw %"struct.std::_Vector_base<hart_debug_state_t, std::allocator<hart_debug_state_t>>::_Vector_impl_data", ptr %4, i32 0, i32 0
  %6 = load ptr, ptr %5, align 8, !tbaa !213
  %7 = getelementptr inbounds nuw %"struct.std::_Vector_base", ptr %3, i32 0, i32 0
  %8 = getelementptr inbounds nuw %"struct.std::_Vector_base<hart_debug_state_t, std::allocator<hart_debug_state_t>>::_Vector_impl_data", ptr %7, i32 0, i32 1
  %9 = load ptr, ptr %8, align 8, !tbaa !214
  %10 = call noundef nonnull align 1 dereferenceable(1) ptr @_ZNSt12_Vector_baseI18hart_debug_state_tSaIS0_EE19_M_get_Tp_allocatorEv(ptr noundef nonnull align 8 dereferenceable(24) %3) #3
  invoke void @_ZSt8_DestroyIP18hart_debug_state_tS0_EvT_S2_RSaIT0_E(ptr noundef %6, ptr noundef %9, ptr noundef nonnull align 1 dereferenceable(1) %10)
          to label %11 unwind label %12

11:                                               ; preds = %1
  call void @_ZNSt12_Vector_baseI18hart_debug_state_tSaIS0_EED2Ev(ptr noundef nonnull align 8 dereferenceable(24) %3) #3
  ret void

12:                                               ; preds = %1
  %13 = landingpad { ptr, i32 }
          catch ptr null
  %14 = extractvalue { ptr, i32 } %13, 0
  call void @__clang_call_terminate(ptr %14) #21
  unreachable
}

; Function Attrs: mustprogress nounwind uwtable
define linkonce_odr void @_ZNSt13_Bvector_baseISaIbEED2Ev(ptr noundef nonnull align 8 dereferenceable(40) %0) unnamed_addr #7 comdat align 2 personality ptr @__gxx_personality_v0 {
  %2 = alloca ptr, align 8
  store ptr %0, ptr %2, align 8, !tbaa !211
  %3 = load ptr, ptr %2, align 8
  invoke void @_ZNSt13_Bvector_baseISaIbEE13_M_deallocateEv(ptr noundef nonnull align 8 dereferenceable(40) %3)
          to label %4 unwind label %6

4:                                                ; preds = %1
  %5 = getelementptr inbounds nuw %"struct.std::_Bvector_base", ptr %3, i32 0, i32 0
  call void @_ZNSaImED2Ev(ptr noundef nonnull align 8 dereferenceable(40) %5) #3
  ret void

6:                                                ; preds = %1
  %7 = landingpad { ptr, i32 }
          catch ptr null
  %8 = extractvalue { ptr, i32 } %7, 0
  call void @__clang_call_terminate(ptr %8) #21
  unreachable
}

; Function Attrs: mustprogress nounwind uwtable
define void @_ZN14debug_module_tD2Ev(ptr noundef nonnull align 8 dereferenceable(1372) %0) unnamed_addr #7 align 2 {
  %2 = alloca ptr, align 8
  store ptr %0, ptr %2, align 8, !tbaa !3
  %3 = load ptr, ptr %2, align 8
  store ptr getelementptr inbounds inrange(-16, 40) ({ [7 x ptr] }, ptr @_ZTV14debug_module_t, i32 0, i32 0, i32 2), ptr %3, align 8, !tbaa !12
  %4 = getelementptr inbounds nuw %class.debug_module_t, ptr %3, i32 0, i32 10
  %5 = load ptr, ptr %4, align 8, !tbaa !57
  %6 = icmp eq ptr %5, null
  br i1 %6, label %8, label %7

7:                                                ; preds = %1
  call void @_ZdaPv(ptr noundef %5) #23
  br label %8

8:                                                ; preds = %7, %1
  %9 = getelementptr inbounds nuw %class.debug_module_t, ptr %3, i32 0, i32 21
  call void @_ZNSt13_Bvector_baseISaIbEED2Ev(ptr noundef nonnull align 8 dereferenceable(40) %9) #3
  %10 = getelementptr inbounds nuw %class.debug_module_t, ptr %3, i32 0, i32 12
  call void @_ZNSt6vectorI18hart_debug_state_tSaIS0_EED2Ev(ptr noundef nonnull align 8 dereferenceable(24) %10) #3
  call void @_ZN17abstract_device_tD2Ev(ptr noundef nonnull align 8 dereferenceable(8) %3) #3
  ret void
}