; Function Attrs: mustprogress nounwind uwtable
define void @_ZN14debug_module_tD2Ev(ptr noundef nonnull align 8 captures(none) dereferenceable(1372) initializes((0, 8)) %0) unnamed_addr #11 align 2 personality ptr @__gxx_personality_v0 {
  store ptr getelementptr inbounds nuw inrange(-16, 40) (i8, ptr @_ZTV14debug_module_t, i64 16), ptr %0, align 8, !tbaa !3
  %2 = getelementptr inbounds nuw i8, ptr %0, i64 112
  %3 = load ptr, ptr %2, align 8, !tbaa !66
  %4 = icmp eq ptr %3, null
  br i1 %4, label %6, label %5

5:                                                ; preds = %1
  tail call void @_ZdaPv(ptr noundef nonnull %3) #30
  br label %6

6:                                                ; preds = %5, %1
  %7 = getelementptr inbounds nuw i8, ptr %0, i64 1240
  %8 = load ptr, ptr %7, align 8, !tbaa !54
  %.not.i.i = icmp eq ptr %8, null
  br i1 %.not.i.i, label %_ZNSt13_Bvector_baseISaIbEED2Ev.exit, label %9

9:                                                ; preds = %6
  %10 = getelementptr inbounds nuw i8, ptr %0, i64 1272
  %11 = load ptr, ptr %10, align 8, !tbaa !56
  %12 = ptrtoint ptr %11 to i64
  %13 = ptrtoint ptr %8 to i64
  %14 = sub i64 %12, %13
  %15 = ashr exact i64 %14, 3
  %16 = sub nsw i64 0, %15
  %17 = getelementptr inbounds i64, ptr %11, i64 %16
  tail call void @_ZdlPvm(ptr noundef %17, i64 noundef %14) #30
  store ptr null, ptr %7, align 8
  %.sroa.4.0..sroa_idx.i.i.i = getelementptr inbounds nuw i8, ptr %0, i64 1248
  store i32 0, ptr %.sroa.4.0..sroa_idx.i.i.i, align 8
  %.sroa.51.0..sroa_idx.i.i.i = getelementptr inbounds nuw i8, ptr %0, i64 1256
  store ptr null, ptr %.sroa.51.0..sroa_idx.i.i.i, align 8
  %.sroa.6.0..sroa_idx.i.i.i = getelementptr inbounds nuw i8, ptr %0, i64 1264
  store i32 0, ptr %.sroa.6.0..sroa_idx.i.i.i, align 8
  store ptr null, ptr %10, align 8
  br label %_ZNSt13_Bvector_baseISaIbEED2Ev.exit

_ZNSt13_Bvector_baseISaIbEED2Ev.exit:             ; preds = %6, %9
  %18 = getelementptr inbounds nuw i8, ptr %0, i64 128
  %19 = load ptr, ptr %18, align 8, !tbaa !49
  %.not.i.i.i = icmp eq ptr %19, null
  br i1 %.not.i.i.i, label %_ZNSt6vectorI18hart_debug_state_tSaIS0_EED2Ev.exit, label %20

20:                                               ; preds = %_ZNSt13_Bvector_baseISaIbEED2Ev.exit
  %21 = getelementptr inbounds nuw i8, ptr %0, i64 144
  %22 = load ptr, ptr %21, align 8, !tbaa !50
  %23 = ptrtoint ptr %22 to i64
  %24 = ptrtoint ptr %19 to i64
  %25 = sub i64 %23, %24
  tail call void @_ZdlPvm(ptr noundef nonnull %19, i64 noundef %25) #30
  br label %_ZNSt6vectorI18hart_debug_state_tSaIS0_EED2Ev.exit

_ZNSt6vectorI18hart_debug_state_tSaIS0_EED2Ev.exit: ; preds = %_ZNSt13_Bvector_baseISaIbEED2Ev.exit, %20
  ret void
}